target datalayout = "e-m:e-p270:32:32-p271:32:32-p272:64:64-i64:64-i128:128-f80:128-n8:16:32:64-S128"
target triple = "x86_64-pc-linux-gnu"

%struct.asn1_string_st = type { i32, i32, ptr, i64 }

@.str = private unnamed_addr constant [31 x i8] c"../openssl/crypto/asn1/a_int.c\00", align 1
@__func__.d2i_ASN1_UINTEGER = private unnamed_addr constant [18 x i8] c"d2i_ASN1_UINTEGER\00", align 1

; Function Attrs: nounwind uwtable
define ptr @d2i_ASN1_UINTEGER(ptr noundef %0, ptr noundef %1, i64 noundef %2) #0 {
  %4 = alloca ptr, align 8
  %5 = alloca ptr, align 8
  %6 = alloca ptr, align 8
  %7 = alloca i64, align 8
  %8 = alloca ptr, align 8
  %9 = alloca ptr, align 8
  %10 = alloca ptr, align 8
  %11 = alloca i64, align 8
  %12 = alloca i32, align 4
  %13 = alloca i32, align 4
  %14 = alloca i32, align 4
  %15 = alloca i32, align 4
  %16 = alloca i32, align 4
  store ptr %0, ptr %5, align 8, !tbaa !23
  store ptr %1, ptr %6, align 8, !tbaa !14
  store i64 %2, ptr %7, align 8, !tbaa !19
  call void @llvm.lifetime.start.p0(i64 8, ptr %8) #4
  store ptr null, ptr %8, align 8, !tbaa !3
  call void @llvm.lifetime.start.p0(i64 8, ptr %9) #4
  call void @llvm.lifetime.start.p0(i64 8, ptr %10) #4
  call void @llvm.lifetime.start.p0(i64 8, ptr %11) #4
  store i64 0, ptr %11, align 8, !tbaa !19
  call void @llvm.lifetime.start.p0(i64 4, ptr %12) #4
  call void @llvm.lifetime.start.p0(i64 4, ptr %13) #4
  call void @llvm.lifetime.start.p0(i64 4, ptr %14) #4
  call void @llvm.lifetime.start.p0(i64 4, ptr %15) #4
  store i32 0, ptr %15, align 4, !tbaa !13
  %17 = load ptr, ptr %5, align 8, !tbaa !23
  %18 = icmp eq ptr %17, null
  br i1 %18, label %23, label %19

19:                                               ; preds = %3
  %20 = load ptr, ptr %5, align 8, !tbaa !23
  %21 = load ptr, ptr %20, align 8, !tbaa !3
  %22 = icmp eq ptr %21, null
  br i1 %22, label %23, label %30

23:                                               ; preds = %19, %3
  %24 = call ptr @ASN1_INTEGER_new()
  store ptr %24, ptr %8, align 8, !tbaa !3
  %25 = icmp eq ptr %24, null
  br i1 %25, label %26, label %27

26:                                               ; preds = %23
  store ptr null, ptr %4, align 8
  store i32 1, ptr %16, align 4
  br label %116

27:                                               ; preds = %23
  %28 = load ptr, ptr %8, align 8, !tbaa !3
  %29 = getelementptr inbounds nuw %struct.asn1_string_st, ptr %28, i32 0, i32 1
  store i32 2, ptr %29, align 4, !tbaa !8
  br label %33

30:                                               ; preds = %19
  %31 = load ptr, ptr %5, align 8, !tbaa !23
  %32 = load ptr, ptr %31, align 8, !tbaa !3
  store ptr %32, ptr %8, align 8, !tbaa !3
  br label %33

33:                                               ; preds = %30, %27
  %34 = load ptr, ptr %6, align 8, !tbaa !14
  %35 = load ptr, ptr %34, align 8, !tbaa !18
  store ptr %35, ptr %9, align 8, !tbaa !18
  %36 = load i64, ptr %7, align 8, !tbaa !19
  %37 = call i32 @ASN1_get_object(ptr noundef %9, ptr noundef %11, ptr noundef %13, ptr noundef %14, i64 noundef %36)
  store i32 %37, ptr %12, align 4, !tbaa !13
  %38 = load i32, ptr %12, align 4, !tbaa !13
  %39 = and i32 %38, 128
  %40 = icmp ne i32 %39, 0
  br i1 %40, label %41, label %42

41:                                               ; preds = %33
  store i32 102, ptr %15, align 4, !tbaa !13
  br label %100

42:                                               ; preds = %33
  %43 = load i32, ptr %13, align 4, !tbaa !13
  %44 = icmp ne i32 %43, 2
  br i1 %44, label %45, label %46

45:                                               ; preds = %42
  store i32 115, ptr %15, align 4, !tbaa !13
  br label %100

46:                                               ; preds = %42
  %47 = load i64, ptr %11, align 8, !tbaa !19
  %48 = icmp slt i64 %47, 0
  br i1 %48, label %49, label %50

49:                                               ; preds = %46
  store i32 226, ptr %15, align 4, !tbaa !13
  br label %100

50:                                               ; preds = %46
  %51 = load i64, ptr %11, align 8, !tbaa !19
  %52 = trunc i64 %51 to i32
  %53 = add nsw i32 %52, 1
  %54 = sext i32 %53 to i64
  %55 = call noalias ptr @CRYPTO_malloc(i64 noundef %54, ptr noundef @.str, i32 noundef 439)
  store ptr %55, ptr %10, align 8, !tbaa !18
  %56 = load ptr, ptr %10, align 8, !tbaa !18
  %57 = icmp eq ptr %56, null
  br i1 %57, label %58, label %59

58:                                               ; preds = %50
  br label %100

59:                                               ; preds = %50
  %60 = load ptr, ptr %8, align 8, !tbaa !3
  %61 = getelementptr inbounds nuw %struct.asn1_string_st, ptr %60, i32 0, i32 1
  store i32 2, ptr %61, align 4, !tbaa !8
  %62 = load i64, ptr %11, align 8, !tbaa !19
  %63 = icmp ne i64 %62, 0
  br i1 %63, label %64, label %86

64:                                               ; preds = %59
  %65 = load ptr, ptr %9, align 8, !tbaa !18
  %66 = load i8, ptr %65, align 1, !tbaa !20
  %67 = zext i8 %66 to i32
  %68 = icmp eq i32 %67, 0
  br i1 %68, label %69, label %77

69:                                               ; preds = %64
  %70 = load i64, ptr %11, align 8, !tbaa !19
  %71 = icmp ne i64 %70, 1
  br i1 %71, label %72, label %77

72:                                               ; preds = %69
  %73 = load ptr, ptr %9, align 8, !tbaa !18
  %74 = getelementptr inbounds nuw i8, ptr %73, i32 1
  store ptr %74, ptr %9, align 8, !tbaa !18
  %75 = load i64, ptr %11, align 8, !tbaa !19
  %76 = add nsw i64 %75, -1
  store i64 %76, ptr %11, align 8, !tbaa !19
  br label %77

77:                                               ; preds = %72, %69, %64
  %78 = load ptr, ptr %10, align 8, !tbaa !18
  %79 = load ptr, ptr %9, align 8, !tbaa !18
  %80 = load i64, ptr %11, align 8, !tbaa !19
  %81 = trunc i64 %80 to i32
  %82 = sext i32 %81 to i64
  call void @llvm.memcpy.p0.p0.i64(ptr align 1 %78, ptr align 1 %79, i64 %82, i1 false)
  %83 = load i64, ptr %11, align 8, !tbaa !19
  %84 = load ptr, ptr %9, align 8, !tbaa !18
  %85 = getelementptr inbounds i8, ptr %84, i64 %83
  store ptr %85, ptr %9, align 8, !tbaa !18
  br label %86

86:                                               ; preds = %77, %59
  %87 = load ptr, ptr %8, align 8, !tbaa !3
  %88 = load ptr, ptr %10, align 8, !tbaa !18
  %89 = load i64, ptr %11, align 8, !tbaa !19
  %90 = trunc i64 %89 to i32
  call void @ASN1_STRING_set0(ptr noundef %87, ptr noundef %88, i32 noundef %90)
  %91 = load ptr, ptr %5, align 8, !tbaa !23
  %92 = icmp ne ptr %91, null
  br i1 %92, label %93, label %96

93:                                               ; preds = %86
  %94 = load ptr, ptr %8, align 8, !tbaa !3
  %95 = load ptr, ptr %5, align 8, !tbaa !23
  store ptr %94, ptr %95, align 8, !tbaa !3
  br label %96

96:                                               ; preds = %93, %86
  %97 = load ptr, ptr %9, align 8, !tbaa !18
  %98 = load ptr, ptr %6, align 8, !tbaa !14
  store ptr %97, ptr %98, align 8, !tbaa !18
  %99 = load ptr, ptr %8, align 8, !tbaa !3
  store ptr %99, ptr %4, align 8
  store i32 1, ptr %16, align 4
  br label %116

100:                                              ; preds = %58, %49, %45, %41
  %101 = load i32, ptr %15, align 4, !tbaa !13
  %102 = icmp ne i32 %101, 0
  br i1 %102, label %103, label %105

103:                                              ; preds = %100
  call void @ERR_new()
  call void @ERR_set_debug(ptr noundef @.str, i32 noundef 459, ptr noundef @__func__.d2i_ASN1_UINTEGER)
  %104 = load i32, ptr %15, align 4, !tbaa !13
  call void (i32, i32, ptr, ...) @ERR_set_error(i32 noundef 13, i32 noundef %104, ptr noundef null)
  br label %105

105:                                              ; preds = %103, %100
  %106 = load ptr, ptr %5, align 8, !tbaa !23
  %107 = icmp eq ptr %106, null
  br i1 %107, label %113, label %108

108:                                              ; preds = %105
  %109 = load ptr, ptr %5, align 8, !tbaa !23
  %110 = load ptr, ptr %109, align 8, !tbaa !3
  %111 = load ptr, ptr %8, align 8, !tbaa !3
  %112 = icmp ne ptr %110, %111
  br i1 %112, label %113, label %115

113:                                              ; preds = %108, %105
  %114 = load ptr, ptr %8, align 8, !tbaa !3
  call void @ASN1_INTEGER_free(ptr noundef %114)
  br label %115

115:                                              ; preds = %113, %108
  store ptr null, ptr %4, align 8
  store i32 1, ptr %16, align 4
  br label %116

116:                                              ; preds = %115, %96, %26
  call void @llvm.lifetime.end.p0(i64 4, ptr %15) #4
  call void @llvm.lifetime.end.p0(i64 4, ptr %14) #4
  call void @llvm.lifetime.end.p0(i64 4, ptr %13) #4
  call void @llvm.lifetime.end.p0(i64 4, ptr %12) #4
  call void @llvm.lifetime.end.p0(i64 8, ptr %11) #4
  call void @llvm.lifetime.end.p0(i64 8, ptr %10) #4
  call void @llvm.lifetime.end.p0(i64 8, ptr %9) #4
  call void @llvm.lifetime.end.p0(i64 8, ptr %8) #4
  %117 = load ptr, ptr %4, align 8
  ret ptr %117
}