; Function Attrs: nounwind uwtable
define ptr @d2i_ASN1_UINTEGER(ptr noundef captures(address_is_null) %0, ptr noundef captures(none) %1, i64 noundef %2) local_unnamed_addr #0 {
  %4 = alloca ptr, align 8
  %5 = alloca i64, align 8
  %6 = alloca i32, align 4
  %7 = alloca i32, align 4
  call void @llvm.lifetime.start.p0(i64 8, ptr nonnull %4) #6
  call void @llvm.lifetime.start.p0(i64 8, ptr nonnull %5) #6
  store i64 0, ptr %5, align 8, !tbaa !22
  call void @llvm.lifetime.start.p0(i64 4, ptr nonnull %6) #6
  call void @llvm.lifetime.start.p0(i64 4, ptr nonnull %7) #6
  %8 = icmp eq ptr %0, null
  br i1 %8, label %12, label %9

9:                                                ; preds = %3
  %10 = load ptr, ptr %0, align 8, !tbaa !18
  %11 = icmp eq ptr %10, null
  br i1 %11, label %12, label %17

12:                                               ; preds = %9, %3
  %13 = tail call ptr @ASN1_INTEGER_new() #6
  %14 = icmp eq ptr %13, null
  br i1 %14, label %58, label %15

15:                                               ; preds = %12
  %16 = getelementptr inbounds nuw i8, ptr %13, i64 4
  store i32 2, ptr %16, align 4, !tbaa !3
  br label %17

17:                                               ; preds = %9, %15
  %.025 = phi ptr [ %13, %15 ], [ %10, %9 ]
  %18 = load ptr, ptr %1, align 8, !tbaa !16
  store ptr %18, ptr %4, align 8, !tbaa !16
  %19 = call i32 @ASN1_get_object(ptr noundef nonnull %4, ptr noundef nonnull %5, ptr noundef nonnull %6, ptr noundef nonnull %7, i64 noundef %2) #6
  %20 = and i32 %19, 128
  %.not = icmp eq i32 %20, 0
  br i1 %.not, label %21, label %53

21:                                               ; preds = %17
  %22 = load i32, ptr %6, align 4, !tbaa !20
  %.not32 = icmp eq i32 %22, 2
  br i1 %.not32, label %23, label %53

23:                                               ; preds = %21
  %24 = load i64, ptr %5, align 8, !tbaa !22
  %25 = icmp slt i64 %24, 0
  br i1 %25, label %53, label %26

26:                                               ; preds = %23
  %27 = shl i64 %24, 32
  %sext = add i64 %27, 4294967296
  %28 = ashr exact i64 %sext, 32
  %29 = call noalias ptr @CRYPTO_malloc(i64 noundef %28, ptr noundef nonnull @.str, i32 noundef 439) #6
  %30 = icmp eq ptr %29, null
  br i1 %30, label %54, label %31

31:                                               ; preds = %26
  %32 = getelementptr inbounds nuw i8, ptr %.025, i64 4
  store i32 2, ptr %32, align 4, !tbaa !3
  %33 = load i64, ptr %5, align 8, !tbaa !22
  %.not33 = icmp eq i64 %33, 0
  br i1 %.not33, label %48, label %34

34:                                               ; preds = %31
  %35 = load ptr, ptr %4, align 8, !tbaa !16
  %36 = load i8, ptr %35, align 1, !tbaa !13
  %37 = icmp eq i8 %36, 0
  %38 = icmp ne i64 %33, 1
  %or.cond = and i1 %38, %37
  br i1 %or.cond, label %39, label %42

39:                                               ; preds = %34
  %40 = getelementptr inbounds nuw i8, ptr %35, i64 1
  store ptr %40, ptr %4, align 8, !tbaa !16
  %41 = add nsw i64 %33, -1
  store i64 %41, ptr %5, align 8, !tbaa !22
  br label %42

42:                                               ; preds = %39, %34
  %43 = phi i64 [ %41, %39 ], [ %33, %34 ]
  %44 = phi ptr [ %40, %39 ], [ %35, %34 ]
  %sext34 = shl i64 %43, 32
  %45 = ashr exact i64 %sext34, 32
  call void @llvm.memcpy.p0.p0.i64(ptr nonnull align 1 %29, ptr nonnull align 1 %44, i64 %45, i1 false)
  %46 = getelementptr inbounds i8, ptr %44, i64 %43
  store ptr %46, ptr %4, align 8, !tbaa !16
  %47 = trunc i64 %43 to i32
  br label %48

48:                                               ; preds = %42, %31
  %49 = phi i32 [ %47, %42 ], [ 0, %31 ]
  call void @ASN1_STRING_set0(ptr noundef nonnull %.025, ptr noundef nonnull %29, i32 noundef %49) #6
  br i1 %8, label %51, label %50

50:                                               ; preds = %48
  store ptr %.025, ptr %0, align 8, !tbaa !18
  br label %51

51:                                               ; preds = %50, %48
  %52 = load ptr, ptr %4, align 8, !tbaa !16
  store ptr %52, ptr %1, align 8, !tbaa !16
  br label %58

53:                                               ; preds = %17, %21, %23
  %.0.ph = phi i32 [ 226, %23 ], [ 115, %21 ], [ 102, %17 ]
  call void @ERR_new() #6
  call void @ERR_set_debug(ptr noundef nonnull @.str, i32 noundef 459, ptr noundef nonnull @__func__.d2i_ASN1_UINTEGER) #6
  call void (i32, i32, ptr, ...) @ERR_set_error(i32 noundef 13, i32 noundef %.0.ph, ptr noundef null) #6
  br label %54

54:                                               ; preds = %26, %53
  br i1 %8, label %57, label %55

55:                                               ; preds = %54
  %56 = load ptr, ptr %0, align 8, !tbaa !18
  %.not37 = icmp eq ptr %56, %.025
  br i1 %.not37, label %58, label %57

57:                                               ; preds = %55, %54
  call void @ASN1_INTEGER_free(ptr noundef nonnull %.025) #6
  br label %58

58:                                               ; preds = %55, %57, %12, %51
  %.024 = phi ptr [ %.025, %51 ], [ null, %12 ], [ null, %57 ], [ null, %55 ]
  call void @llvm.lifetime.end.p0(i64 4, ptr nonnull %7) #6
  call void @llvm.lifetime.end.p0(i64 4, ptr nonnull %6) #6
  call void @llvm.lifetime.end.p0(i64 8, ptr nonnull %5) #6
  call void @llvm.lifetime.end.p0(i64 8, ptr nonnull %4) #6
  ret ptr %.024
}